; ModuleID = '4/385.c'
source_filename = "4/385.c"
target datalayout = "e-m:e-p270:32:32-p271:32:32-p272:64:64-i64:64-f80:128-n8:16:32:64-S128"
target triple = "x86_64-pc-linux-gnu"

@.str = private unnamed_addr constant [6 x i8] c"%d %d\00", align 1
@.str.1 = private unnamed_addr constant [3 x i8] c"%d\00", align 1
@.str.2 = private unnamed_addr constant [4 x i8] c"%d\0A\00", align 1

; Function Attrs: noinline nounwind uwtable
define dso_local i32 @main() #0 {
  %1 = alloca i32, align 4
  %2 = alloca i32, align 4
  %3 = alloca i32, align 4
  %4 = alloca i32, align 4
  %5 = alloca i32, align 4
  %6 = alloca i32, align 4
  %7 = alloca i32, align 4
  %8 = alloca i32, align 4
  %9 = alloca [10000 x i32], align 16
  store i32 0, i32* %1, align 4
  %10 = call i32 (i8*, ...) @__isoc99_scanf(i8* getelementptr inbounds ([6 x i8], [6 x i8]* @.str, i64 0, i64 0), i32* %2, i32* %3)
  store i32 0, i32* %8, align 4
  br label %11

11:                                               ; preds = %23, %0
  %12 = load i32, i32* %8, align 4
  %13 = load i32, i32* %2, align 4
  %14 = load i32, i32* %3, align 4
  %15 = mul nsw i32 %13, %14
  %16 = sub nsw i32 %15, 1
  %17 = icmp sle i32 %12, %16
  br i1 %17, label %18, label %26

18:                                               ; preds = %11
  %19 = load i32, i32* %8, align 4
  %20 = sext i32 %19 to i64
  %21 = getelementptr inbounds [10000 x i32], [10000 x i32]* %9, i64 0, i64 %20
  %22 = call i32 (i8*, ...) @__isoc99_scanf(i8* getelementptr inbounds ([3 x i8], [3 x i8]* @.str.1, i64 0, i64 0), i32* %21)
  br label %23

23:                                               ; preds = %18
  %24 = load i32, i32* %8, align 4
  %25 = add nsw i32 %24, 1
  store i32 %25, i32* %8, align 4
  br label %11

26:                                               ; preds = %11
  store i32 0, i32* %7, align 4
  br label %27

27:                                               ; preds = %70, %26
  %28 = load i32, i32* %7, align 4
  %29 = load i32, i32* %2, align 4
  %30 = load i32, i32* %3, align 4
  %31 = add nsw i32 %29, %30
  %32 = sub nsw i32 %31, 1
  %33 = icmp sle i32 %28, %32
  br i1 %33, label %34, label %73

34:                                               ; preds = %27
  store i32 0, i32* %4, align 4
  %35 = load i32, i32* %7, align 4
  %36 = load i32, i32* %4, align 4
  %37 = sub nsw i32 %35, %36
  store i32 %37, i32* %5, align 4
  br label %38

38:                                               ; preds = %64, %34
  %39 = load i32, i32* %4, align 4
  %40 = load i32, i32* %2, align 4
  %41 = sub nsw i32 %40, 1
  %42 = icmp sle i32 %39, %41
  br i1 %42, label %43, label %46

43:                                               ; preds = %38
  %44 = load i32, i32* %5, align 4
  %45 = icmp sge i32 %44, 0
  br label %46

46:                                               ; preds = %43, %38
  %47 = phi i1 [ false, %38 ], [ %45, %43 ]
  br i1 %47, label %48, label %69

48:                                               ; preds = %46
  %49 = load i32, i32* %5, align 4
  %50 = load i32, i32* %3, align 4
  %51 = icmp sge i32 %49, %50
  br i1 %51, label %52, label %53

52:                                               ; preds = %48
  br label %64

53:                                               ; preds = %48
  %54 = load i32, i32* %4, align 4
  %55 = load i32, i32* %3, align 4
  %56 = mul nsw i32 %54, %55
  %57 = load i32, i32* %5, align 4
  %58 = add nsw i32 %56, %57
  store i32 %58, i32* %6, align 4
  %59 = load i32, i32* %6, align 4
  %60 = sext i32 %59 to i64
  %61 = getelementptr inbounds [10000 x i32], [10000 x i32]* %9, i64 0, i64 %60
  %62 = load i32, i32* %61, align 4
  %63 = call i32 (i8*, ...) @printf(i8* getelementptr inbounds ([4 x i8], [4 x i8]* @.str.2, i64 0, i64 0), i32 %62)
  br label %64

64:                                               ; preds = %53, %52
  %65 = load i32, i32* %4, align 4
  %66 = add nsw i32 %65, 1
  store i32 %66, i32* %4, align 4
  %67 = load i32, i32* %5, align 4
  %68 = add nsw i32 %67, -1
  store i32 %68, i32* %5, align 4
  br label %38

69:                                               ; preds = %46
  br label %70

70:                                               ; preds = %69
  %71 = load i32, i32* %7, align 4
  %72 = add nsw i32 %71, 1
  store i32 %72, i32* %7, align 4
  br label %27

73:                                               ; preds = %27
  %74 = call i32 (i8*, ...) @__isoc99_scanf(i8* getelementptr inbounds ([3 x i8], [3 x i8]* @.str.1, i64 0, i64 0), i32* %8)
  ret i32 0
}

declare dso_local i32 @__isoc99_scanf(i8*, ...) #1

declare dso_local i32 @printf(i8*, ...) #1


!llvm.module.flags = !{!0}
!llvm.ident = !{!1}

!0 = !{i32 1, !"wchar_size", i32 4}
!1 = !{!"clang version 10.0.0-4ubuntu1 "}
